; Function Attrs: nounwind uwtable
define hidden void @zif_session_encode(ptr nocapture noundef readonly %0, ptr nocapture noundef writeonly %1) #0 {
  %3 = getelementptr inbounds i8, ptr %0, i64 44
  %4 = load i32, ptr %3, align 4
  %.not = icmp eq i32 %4, 0
  br i1 %.not, label %.critedge, label %5

5:                                                ; preds = %2
  tail call void @zend_wrong_parameters_none_error() #23
  %6 = load ptr, ptr getelementptr inbounds (%struct._zend_executor_globals, ptr @executor_globals, i64 0, i32 50), align 8
  %7 = icmp ne ptr %6, null
  tail call void @llvm.assume(i1 %7)
  br label %28

.critedge:                                        ; preds = %2
  %8 = load i8, ptr getelementptr inbounds (%struct._php_ps_globals, ptr @ps_globals, i64 0, i32 35, i32 1), align 16
  %9 = icmp eq i8 %8, 10
  br i1 %9, label %10, label %php_session_encode.exit.thread.sink.split

10:                                               ; preds = %.critedge
  %11 = load ptr, ptr getelementptr inbounds (%struct._php_ps_globals, ptr @ps_globals, i64 0, i32 35), align 8
  %12 = getelementptr inbounds i8, ptr %11, i64 16
  %13 = load i8, ptr %12, align 8
  %14 = icmp eq i8 %13, 7
  br i1 %14, label %15, label %php_session_encode.exit.thread.sink.split

15:                                               ; preds = %10
  %16 = load ptr, ptr getelementptr inbounds (%struct._php_ps_globals, ptr @ps_globals, i64 0, i32 34), align 16
  %.not.i = icmp eq ptr %16, null
  br i1 %.not.i, label %php_session_encode.exit.thread.sink.split, label %php_session_encode.exit

php_session_encode.exit:                          ; preds = %15
  %17 = getelementptr inbounds i8, ptr %16, i64 8
  %18 = load ptr, ptr %17, align 8
  %19 = tail call ptr %18() #23
  %20 = icmp eq ptr %19, null
  br i1 %20, label %php_session_encode.exit.thread, label %22

php_session_encode.exit.thread.sink.split:        ; preds = %.critedge, %10, %15
  %.str.167.sink = phi ptr [ @.str.166, %15 ], [ @.str.167, %10 ], [ @.str.167, %.critedge ]
  tail call void (ptr, i32, ptr, ...) @php_error_docref(ptr noundef null, i32 noundef 2, ptr noundef nonnull %.str.167.sink) #23
  br label %php_session_encode.exit.thread

php_session_encode.exit.thread:                   ; preds = %php_session_encode.exit.thread.sink.split, %php_session_encode.exit
  %21 = getelementptr inbounds i8, ptr %1, i64 8
  store i32 2, ptr %21, align 8
  br label %28

22:                                               ; preds = %php_session_encode.exit
  store ptr %19, ptr %1, align 8
  %23 = getelementptr inbounds i8, ptr %19, i64 4
  %24 = load i32, ptr %23, align 4
  %25 = and i32 %24, 64
  %.not9 = icmp eq i32 %25, 0
  %26 = select i1 %.not9, i32 262, i32 6
  %27 = getelementptr inbounds i8, ptr %1, i64 8
  store i32 %26, ptr %27, align 8
  br label %28

28:                                               ; preds = %22, %php_session_encode.exit.thread, %5
  ret void
}